target datalayout = "e-m:e-p270:32:32-p271:32:32-p272:64:64-i64:64-i128:128-f80:128-n8:16:32:64-S128"
target triple = "x86_64-unknown-linux-gnu"

%"class.fmt::v10::file" = type { i32 }
%class.output_redirect = type { ptr, %"class.fmt::v10::file", %"class.fmt::v10::file" }
%"class.std::__cxx11::basic_string" = type { %"struct.std::__cxx11::basic_string<char>::_Alloc_hider", i64, %union.anon.0 }
%"struct.std::__cxx11::basic_string<char>::_Alloc_hider" = type { ptr }
%union.anon.0 = type { i64, [8 x i8] }

; Function Attrs: mustprogress nounwind uwtable
define linkonce_odr hidden noundef i32 @_ZNK3fmt3v104file10descriptorEv(ptr noundef nonnull align 4 dereferenceable(4) %this) #5 comdat align 2 {
entry:
  %this.addr = alloca ptr, align 8
  store ptr %this, ptr %this.addr, align 8
  %this1 = load ptr, ptr %this.addr, align 8
  %fd_ = getelementptr inbounds %"class.fmt::v10::file", ptr %this1, i32 0, i32 0
  %0 = load i32, ptr %fd_, align 4
  ret i32 %0
}

; Function Attrs: mustprogress uwtable
define hidden void @_ZN15output_redirect7restoreEv(ptr noundef nonnull align 8 dereferenceable(16) %this) #4 align 2 {
entry:
  %this.addr = alloca ptr, align 8
  store ptr %this, ptr %this.addr, align 8
  %this1 = load ptr, ptr %this.addr, align 8
  %original_ = getelementptr inbounds %class.output_redirect, ptr %this1, i32 0, i32 1
  %call = call noundef i32 @_ZNK3fmt3v104file10descriptorEv(ptr noundef nonnull align 4 dereferenceable(4) %original_) #3
  %cmp = icmp eq i32 %call, -1
  br i1 %cmp, label %if.then, label %if.end

if.then:                                          ; preds = %entry
  br label %return

if.end:                                           ; preds = %entry
  call void @_ZN15output_redirect5flushEv(ptr noundef nonnull align 8 dereferenceable(16) %this1)
  %original_2 = getelementptr inbounds %class.output_redirect, ptr %this1, i32 0, i32 1
  %file_ = getelementptr inbounds %class.output_redirect, ptr %this1, i32 0, i32 0
  %0 = load ptr, ptr %file_, align 8
  %call3 = call i32 @fileno(ptr noundef %0) #3
  call void @_ZN3fmt3v104file4dup2Ei(ptr noundef nonnull align 4 dereferenceable(4) %original_2, i32 noundef %call3)
  %original_4 = getelementptr inbounds %class.output_redirect, ptr %this1, i32 0, i32 1
  call void @_ZN3fmt3v104file5closeEv(ptr noundef nonnull align 4 dereferenceable(4) %original_4)
  br label %return

return:                                           ; preds = %if.end, %if.then
  ret void
}

; Function Attrs: mustprogress uwtable
define hidden void @_ZN15output_redirect16restore_and_readB5cxx11Ev(ptr noalias sret(%"class.std::__cxx11::basic_string") align 8 %agg.result, ptr noundef nonnull align 8 dereferenceable(16) %this) #4 align 2 personality ptr @__gxx_personality_v0 {
entry:
  %result.ptr = alloca ptr, align 8
  %this.addr = alloca ptr, align 8
  %nrvo = alloca i1, align 1
  %cleanup.dest.slot = alloca i32, align 4
  %buffer = alloca [4096 x i8], align 16
  %count = alloca i64, align 8
  %exn.slot = alloca ptr, align 8
  %ehselector.slot = alloca i32, align 4
  store ptr %agg.result, ptr %result.ptr, align 8
  store ptr %this, ptr %this.addr, align 8
  %this1 = load ptr, ptr %this.addr, align 8
  call void @_ZN15output_redirect7restoreEv(ptr noundef nonnull align 8 dereferenceable(16) %this1)
  store i1 false, ptr %nrvo, align 1
  call void @_ZNSt7__cxx1112basic_stringIcSt11char_traitsIcESaIcEEC1Ev(ptr noundef nonnull align 8 dereferenceable(32) %agg.result) #3
  %read_end_ = getelementptr inbounds %class.output_redirect, ptr %this1, i32 0, i32 2
  %call = call noundef i32 @_ZNK3fmt3v104file10descriptorEv(ptr noundef nonnull align 4 dereferenceable(4) %read_end_) #3
  %cmp = icmp eq i32 %call, -1
  br i1 %cmp, label %if.then, label %if.end

if.then:                                          ; preds = %entry
  store i1 true, ptr %nrvo, align 1
  store i32 1, ptr %cleanup.dest.slot, align 4
  br label %cleanup

if.end:                                           ; preds = %entry
  store i64 0, ptr %count, align 8
  br label %do.body

do.body:                                          ; preds = %do.cond, %if.end
  %read_end_2 = getelementptr inbounds %class.output_redirect, ptr %this1, i32 0, i32 2
  %arraydecay = getelementptr inbounds [4096 x i8], ptr %buffer, i64 0, i64 0
  %call3 = invoke noundef i64 @_ZN3fmt3v104file4readEPvm(ptr noundef nonnull align 4 dereferenceable(4) %read_end_2, ptr noundef %arraydecay, i64 noundef 4096)
          to label %invoke.cont unwind label %lpad

invoke.cont:                                      ; preds = %do.body
  store i64 %call3, ptr %count, align 8
  %arraydecay4 = getelementptr inbounds [4096 x i8], ptr %buffer, i64 0, i64 0
  %0 = load i64, ptr %count, align 8
  %call6 = invoke noundef nonnull align 8 dereferenceable(32) ptr @_ZNSt7__cxx1112basic_stringIcSt11char_traitsIcESaIcEE6appendEPKcm(ptr noundef nonnull align 8 dereferenceable(32) %agg.result, ptr noundef %arraydecay4, i64 noundef %0)
          to label %invoke.cont5 unwind label %lpad

invoke.cont5:                                     ; preds = %invoke.cont
  br label %do.cond

do.cond:                                          ; preds = %invoke.cont5
  %1 = load i64, ptr %count, align 8
  %cmp7 = icmp ne i64 %1, 0
  br i1 %cmp7, label %do.body, label %do.end, !llvm.loop !7

do.end:                                           ; preds = %do.cond
  %read_end_8 = getelementptr inbounds %class.output_redirect, ptr %this1, i32 0, i32 2
  invoke void @_ZN3fmt3v104file5closeEv(ptr noundef nonnull align 4 dereferenceable(4) %read_end_8)
          to label %invoke.cont9 unwind label %lpad

invoke.cont9:                                     ; preds = %do.end
  store i1 true, ptr %nrvo, align 1
  store i32 1, ptr %cleanup.dest.slot, align 4
  br label %cleanup

lpad:                                             ; preds = %do.end, %invoke.cont, %do.body
  %2 = landingpad { ptr, i32 }
          cleanup
  %3 = extractvalue { ptr, i32 } %2, 0
  store ptr %3, ptr %exn.slot, align 8
  %4 = extractvalue { ptr, i32 } %2, 1
  store i32 %4, ptr %ehselector.slot, align 4
  call void @_ZNSt7__cxx1112basic_stringIcSt11char_traitsIcESaIcEED1Ev(ptr noundef nonnull align 8 dereferenceable(32) %agg.result) #3
  br label %eh.resume

cleanup:                                          ; preds = %invoke.cont9, %if.then
  %nrvo.val = load i1, ptr %nrvo, align 1
  br i1 %nrvo.val, label %nrvo.skipdtor, label %nrvo.unused

nrvo.unused:                                      ; preds = %cleanup
  call void @_ZNSt7__cxx1112basic_stringIcSt11char_traitsIcESaIcEED1Ev(ptr noundef nonnull align 8 dereferenceable(32) %agg.result) #3
  br label %nrvo.skipdtor

nrvo.skipdtor:                                    ; preds = %nrvo.unused, %cleanup
  ret void

eh.resume:                                        ; preds = %lpad
  %exn = load ptr, ptr %exn.slot, align 8
  %sel = load i32, ptr %ehselector.slot, align 4
  %lpad.val = insertvalue { ptr, i32 } poison, ptr %exn, 0
  %lpad.val10 = insertvalue { ptr, i32 } %lpad.val, i32 %sel, 1
  resume { ptr, i32 } %lpad.val10
}