; Function Attrs: mustprogress uwtable
define hidden void @_ZN15output_redirect16restore_and_readB5cxx11Ev(ptr noalias sret(%"class.std::__cxx11::basic_string") align 8 %agg.result, ptr noundef nonnull align 8 dereferenceable(16) %this) local_unnamed_addr #3 align 2 personality ptr @__gxx_personality_v0 {
entry:
  %buffer = alloca [4096 x i8], align 16
  %original_.i = getelementptr inbounds i8, ptr %this, i64 8
  %0 = load i32, ptr %original_.i, align 8
  %cmp.i = icmp eq i32 %0, -1
  br i1 %cmp.i, label %_ZN15output_redirect7restoreEv.exit, label %if.end.i

if.end.i:                                         ; preds = %entry
  tail call void @_ZN15output_redirect5flushEv(ptr noundef nonnull align 8 dereferenceable(16) %this)
  %1 = load ptr, ptr %this, align 8
  %call3.i = tail call i32 @fileno(ptr noundef %1) #25
  tail call void @_ZN3fmt3v104file4dup2Ei(ptr noundef nonnull align 4 dereferenceable(4) %original_.i, i32 noundef %call3.i)
  tail call void @_ZN3fmt3v104file5closeEv(ptr noundef nonnull align 4 dereferenceable(4) %original_.i)
  br label %_ZN15output_redirect7restoreEv.exit

_ZN15output_redirect7restoreEv.exit:              ; preds = %entry, %if.end.i
  tail call void @_ZNSt7__cxx1112basic_stringIcSt11char_traitsIcESaIcEEC1Ev(ptr noundef nonnull align 8 dereferenceable(32) %agg.result) #25
  %read_end_ = getelementptr inbounds i8, ptr %this, i64 12
  %2 = load i32, ptr %read_end_, align 4
  %cmp = icmp eq i32 %2, -1
  br i1 %cmp, label %nrvo.skipdtor, label %do.body

do.body:                                          ; preds = %_ZN15output_redirect7restoreEv.exit, %do.cond
  %call3 = invoke noundef i64 @_ZN3fmt3v104file4readEPvm(ptr noundef nonnull align 4 dereferenceable(4) %read_end_, ptr noundef nonnull %buffer, i64 noundef 4096)
          to label %invoke.cont unwind label %lpad.loopexit

invoke.cont:                                      ; preds = %do.body
  %call6 = invoke noundef nonnull align 8 dereferenceable(32) ptr @_ZNSt7__cxx1112basic_stringIcSt11char_traitsIcESaIcEE6appendEPKcm(ptr noundef nonnull align 8 dereferenceable(32) %agg.result, ptr noundef nonnull %buffer, i64 noundef %call3)
          to label %do.cond unwind label %lpad.loopexit

do.cond:                                          ; preds = %invoke.cont
  %cmp7.not = icmp eq i64 %call3, 0
  br i1 %cmp7.not, label %do.end, label %do.body, !llvm.loop !10

do.end:                                           ; preds = %do.cond
  invoke void @_ZN3fmt3v104file5closeEv(ptr noundef nonnull align 4 dereferenceable(4) %read_end_)
          to label %nrvo.skipdtor unwind label %lpad.loopexit.split-lp

lpad.loopexit:                                    ; preds = %do.body, %invoke.cont
  %lpad.loopexit2 = landingpad { ptr, i32 }
          cleanup
  br label %lpad

lpad.loopexit.split-lp:                           ; preds = %do.end
  %lpad.loopexit.split-lp3 = landingpad { ptr, i32 }
          cleanup
  br label %lpad

lpad:                                             ; preds = %lpad.loopexit.split-lp, %lpad.loopexit
  %lpad.phi = phi { ptr, i32 } [ %lpad.loopexit2, %lpad.loopexit ], [ %lpad.loopexit.split-lp3, %lpad.loopexit.split-lp ]
  call void @_ZNSt7__cxx1112basic_stringIcSt11char_traitsIcESaIcEED1Ev(ptr noundef nonnull align 8 dereferenceable(32) %agg.result) #25
  resume { ptr, i32 } %lpad.phi

nrvo.skipdtor:                                    ; preds = %_ZN15output_redirect7restoreEv.exit, %do.end
  ret void
}